   1              		.file	"init.c"
   9              	.Ltext0:
  10              		.section	.rodata
  13              	keymap:
  14 0000 0D       		.byte	13
  15 0001 0F       		.byte	15
  16 0002 0A       		.byte	10
  17 0003 05       		.byte	5
  18 0004 10       		.byte	16
  19 0005 0B       		.byte	11
  20 0006 06       		.byte	6
  21 0007 11       		.byte	17
  22 0008 0C       		.byte	12
  23 0009 07       		.byte	7
  24 000a 12       		.byte	18
  25 000b 08       		.byte	8
  26 000c 0E       		.byte	14
  27 000d 13       		.byte	19
  28 000e 09       		.byte	9
  29 000f 01       		.byte	1
  30 0010 02       		.byte	2
  31 0011 03       		.byte	3
  32 0012 04       		.byte	4
  33 0013 00       		.byte	0
  34 0014 18       		.byte	24
  35 0015 1E       		.byte	30
  36 0016 1E       		.byte	30
  37 0017 1E       		.byte	30
  38              		.section	.text.board_init,"ax",%progbits
  39              		.align	2
  40              		.global	board_init
  42              	board_init:
  43              	.LFB56:
  44              		.file 1 "board/se_j100/init.c"
   1:board/se_j100/init.c **** /* Initialization for the Sony Ericsson J100 */
   2:board/se_j100/init.c **** 
   3:board/se_j100/init.c **** /* (C) 2010 by Harald Welte <laforge@gnumonks.org>
   4:board/se_j100/init.c ****  * (C) 2010-11 by Steve Markgraf <steve@steve-m.de>
   5:board/se_j100/init.c ****  *
   6:board/se_j100/init.c ****  * All Rights Reserved
   7:board/se_j100/init.c ****  *
   8:board/se_j100/init.c ****  * This program is free software; you can redistribute it and/or modify
   9:board/se_j100/init.c ****  * it under the terms of the GNU General Public License as published by
  10:board/se_j100/init.c ****  * the Free Software Foundation; either version 2 of the License, or
  11:board/se_j100/init.c ****  * (at your option) any later version.
  12:board/se_j100/init.c ****  *
  13:board/se_j100/init.c ****  * This program is distributed in the hope that it will be useful,
  14:board/se_j100/init.c ****  * but WITHOUT ANY WARRANTY; without even the implied warranty of
  15:board/se_j100/init.c ****  * MERCHANTABILITY or FITNESS FOR A PARTICULAR PURPOSE.  See the
  16:board/se_j100/init.c ****  * GNU General Public License for more details.
  17:board/se_j100/init.c ****  *
  18:board/se_j100/init.c ****  * You should have received a copy of the GNU General Public License along
  19:board/se_j100/init.c ****  * with this program; if not, write to the Free Software Foundation, Inc.,
  20:board/se_j100/init.c ****  * 51 Franklin Street, Fifth Floor, Boston, MA 02110-1301 USA.
  21:board/se_j100/init.c ****  *
  22:board/se_j100/init.c ****  */
  23:board/se_j100/init.c **** 
  24:board/se_j100/init.c **** #include <stdint.h>
  25:board/se_j100/init.c **** #include <stdio.h>
  26:board/se_j100/init.c **** 
  27:board/se_j100/init.c **** #include <debug.h>
  28:board/se_j100/init.c **** #include <ctors.h>
  29:board/se_j100/init.c **** #include <memory.h>
  30:board/se_j100/init.c **** #include <board.h>
  31:board/se_j100/init.c **** #include <keypad.h>
  32:board/se_j100/init.c **** #include <console.h>
  33:board/se_j100/init.c **** #include <flash/cfi_flash.h>
  34:board/se_j100/init.c **** 
  35:board/se_j100/init.c **** #include <calypso/irq.h>
  36:board/se_j100/init.c **** #include <calypso/clock.h>
  37:board/se_j100/init.c **** #include <calypso/dma.h>
  38:board/se_j100/init.c **** #include <calypso/rtc.h>
  39:board/se_j100/init.c **** #include <calypso/timer.h>
  40:board/se_j100/init.c **** #include <uart.h>
  41:board/se_j100/init.c **** #include <calypso/backlight.h>
  42:board/se_j100/init.c **** 
  43:board/se_j100/init.c **** #include <comm/sercomm.h>
  44:board/se_j100/init.c **** #include <comm/timer.h>
  45:board/se_j100/init.c **** 
  46:board/se_j100/init.c **** #include <abb/twl3025.h>
  47:board/se_j100/init.c **** #include <rf/trf6151.h>
  48:board/se_j100/init.c **** 
  49:board/se_j100/init.c **** #include <fb/framebuffer.h>
  50:board/se_j100/init.c **** #include "../compal/keymap.h"
  51:board/se_j100/init.c **** 
  52:board/se_j100/init.c **** #define ARMIO_LATCH_OUT 0xfffe4802
  53:board/se_j100/init.c **** #define IO_CNTL_REG	0xfffe4804
  54:board/se_j100/init.c **** #define ASIC_CONF_REG	0xfffef008
  55:board/se_j100/init.c **** 
  56:board/se_j100/init.c **** static void board_io_init(void)
  57:board/se_j100/init.c **** {
  58:board/se_j100/init.c **** 	uint16_t reg;
  59:board/se_j100/init.c **** 
  60:board/se_j100/init.c **** 	reg = readw(ASIC_CONF_REG);
  61:board/se_j100/init.c **** 	/* LCD Set I/O(3) / SA0 to I/O(3) mode */
  62:board/se_j100/init.c **** 	reg &= ~( (1 << 12) | (1 << 10) | (1 << 7) | (1 << 1)) ;
  63:board/se_j100/init.c **** 	/* don't set function pins to I2C Mode, J100 uses UWire */
  64:board/se_j100/init.c **** 	/* TWL3025: Set SPI+RIF RX clock to rising edge */
  65:board/se_j100/init.c **** 	reg |= (1 << 13) | (1 << 14);
  66:board/se_j100/init.c **** 	writew(reg, ASIC_CONF_REG);
  67:board/se_j100/init.c **** 
  68:board/se_j100/init.c **** 	/* LCD Set I/O(3) to output mode and enable C155 backlight (IO1) */
  69:board/se_j100/init.c **** 	/* FIXME: Put the display backlight control to backlight.c */
  70:board/se_j100/init.c **** 	reg = readw(IO_CNTL_REG);
  71:board/se_j100/init.c **** 	reg &= ~( (1 << 3) | (1 << 1));
  72:board/se_j100/init.c **** 	writew(reg, IO_CNTL_REG);
  73:board/se_j100/init.c **** 
  74:board/se_j100/init.c **** 	/* LCD Set I/O(3) output low */
  75:board/se_j100/init.c **** 	reg = readw(ARMIO_LATCH_OUT);
  76:board/se_j100/init.c **** 	reg &= ~(1 << 3);
  77:board/se_j100/init.c **** 	reg |= (1 << 1);
  78:board/se_j100/init.c **** 	writew(reg, ARMIO_LATCH_OUT);
  79:board/se_j100/init.c **** }
  80:board/se_j100/init.c **** 
  81:board/se_j100/init.c **** void board_init(int with_irq)
  82:board/se_j100/init.c **** {
  45              		.loc 1 82 0
  46              		@ args = 0, pretend = 0, frame = 0
  47              		@ frame_needed = 0, uses_anonymous_args = 0
  48              	.LVL0:
  49 0000 70402DE9 		stmfd	sp!, {r4, r5, r6, lr}
  50              	.LCFI0:
  51 0004 0040A0E1 		mov	r4, r0
  52 0008 0CD04DE2 		sub	sp, sp, #12
  53              	.LCFI1:
  54              	.LVL1:
  83:board/se_j100/init.c **** 	/* Disable watchdog (compal loader leaves it enabled) */
  84:board/se_j100/init.c **** 	wdog_enable(0);
  55              		.loc 1 84 0
  56 000c 0000A0E3 		mov	r0, #0
  57              	.LVL2:
  58 0010 FEFFFFEB 		bl	wdog_enable
  85:board/se_j100/init.c **** 
  86:board/se_j100/init.c **** 	/* Configure memory interface */
  87:board/se_j100/init.c **** 	calypso_mem_cfg(CALYPSO_nCS0, 3, CALYPSO_MEM_16bit, 1);
  59              		.loc 1 87 0
  60 0014 0120A0E3 		mov	r2, #1
  61 0018 0230A0E1 		mov	r3, r2
  62 001c 0000A0E3 		mov	r0, #0
  63 0020 0310A0E3 		mov	r1, #3
  64 0024 FEFFFFEB 		bl	calypso_mem_cfg
  88:board/se_j100/init.c **** 	calypso_mem_cfg(CALYPSO_nCS1, 3, CALYPSO_MEM_16bit, 1);
  65              		.loc 1 88 0
  66 0028 0120A0E3 		mov	r2, #1
  67 002c 0230A0E1 		mov	r3, r2
  68 0030 0200A0E3 		mov	r0, #2
  69 0034 0310A0E3 		mov	r1, #3
  70 0038 FEFFFFEB 		bl	calypso_mem_cfg
  89:board/se_j100/init.c **** 	calypso_mem_cfg(CALYPSO_nCS2, 5, CALYPSO_MEM_16bit, 1);
  71              		.loc 1 89 0
  72 003c 0120A0E3 		mov	r2, #1
  73 0040 0230A0E1 		mov	r3, r2
  74 0044 0400A0E3 		mov	r0, #4
  75 0048 0510A0E3 		mov	r1, #5
  76 004c FEFFFFEB 		bl	calypso_mem_cfg
  90:board/se_j100/init.c **** 	calypso_mem_cfg(CALYPSO_nCS3, 5, CALYPSO_MEM_16bit, 1);
  77              		.loc 1 90 0
  78 0050 0120A0E3 		mov	r2, #1
  79 0054 0230A0E1 		mov	r3, r2
  80 0058 0600A0E3 		mov	r0, #6
  81 005c 0510A0E3 		mov	r1, #5
  82 0060 FEFFFFEB 		bl	calypso_mem_cfg
  91:board/se_j100/init.c **** 	calypso_mem_cfg(CALYPSO_CS4, 0, CALYPSO_MEM_8bit, 1);
  83              		.loc 1 91 0
  84 0064 0010A0E3 		mov	r1, #0
  85 0068 0120A0E1 		mov	r2, r1
  86 006c 0A00A0E3 		mov	r0, #10
  87 0070 0130A0E3 		mov	r3, #1
  88 0074 FEFFFFEB 		bl	calypso_mem_cfg
  92:board/se_j100/init.c **** 	calypso_mem_cfg(CALYPSO_nCS6, 0, CALYPSO_MEM_32bit, 1);
  89              		.loc 1 92 0
  90 0078 0C00A0E3 		mov	r0, #12
  91 007c 0010A0E3 		mov	r1, #0
  92 0080 0220A0E3 		mov	r2, #2
  93 0084 0130A0E3 		mov	r3, #1
  94 0088 FEFFFFEB 		bl	calypso_mem_cfg
  93:board/se_j100/init.c **** 	calypso_mem_cfg(CALYPSO_nCS7, 0, CALYPSO_MEM_32bit, 0);
  95              		.loc 1 93 0
  96 008c 0010A0E3 		mov	r1, #0
  97 0090 0130A0E1 		mov	r3, r1
  98 0094 0800A0E3 		mov	r0, #8
  99 0098 0220A0E3 		mov	r2, #2
 100 009c FEFFFFEB 		bl	calypso_mem_cfg
  94:board/se_j100/init.c **** 
  95:board/se_j100/init.c **** 	/* Set VTCXO_DIV2 = 1, configure PLL for 104 MHz and give ARM half of that */
  96:board/se_j100/init.c **** 	calypso_clock_set(2, CALYPSO_PLL13_104_MHZ, ARM_MCLK_DIV_2);
 101              		.loc 1 96 0
 102 00a0 0200A0E3 		mov	r0, #2
  97:board/se_j100/init.c **** 
  98:board/se_j100/init.c **** 	/* Configure the RHEA bridge with some sane default values */
  99:board/se_j100/init.c **** 	calypso_rhea_cfg(0, 0, 0xff, 0, 1, 0, 0);
 103              		.loc 1 99 0
 104 00a4 0050A0E3 		mov	r5, #0
 105              		.loc 1 96 0
 106 00a8 0020A0E1 		mov	r2, r0
 107 00ac 021BA0E3 		mov	r1, #2048
 108 00b0 FEFFFFEB 		bl	calypso_clock_set
 109              		.loc 1 99 0
 110 00b4 0160A0E3 		mov	r6, #1
 111 00b8 0510A0E1 		mov	r1, r5
 112 00bc FF20A0E3 		mov	r2, #255
 113 00c0 0530A0E1 		mov	r3, r5
 114 00c4 0500A0E1 		mov	r0, r5
 115 00c8 00608DE5 		str	r6, [sp, #0]
 116 00cc 04508DE5 		str	r5, [sp, #4]
 117 00d0 08508DE5 		str	r5, [sp, #8]
 118 00d4 FEFFFFEB 		bl	calypso_rhea_cfg
 119              	.LBB2:
 120              	.LBB3:
 121              		.loc 1 60 0
 122 00d8 DC109FE5 		ldr	r1, .L5
 123              		.loc 1 62 0
 124 00dc DC309FE5 		ldr	r3, .L5+4
 125              	.LVL3:
 126              		.loc 1 60 0
 127 00e0 B020D1E1 		ldrh	r2, [r1, #0]
 128              		.loc 1 62 0
 129 00e4 033002E0 		and	r3, r2, r3
 130              		.loc 1 65 0
 131 00e8 063A83E3 		orr	r3, r3, #24576
 132              	.LVL4:
 133              		.loc 1 66 0
 134 00ec B030C1E1 		strh	r3, [r1, #0]	@ movhi
 135              		.loc 1 70 0
 136 00f0 CC109FE5 		ldr	r1, .L5+8
 137              		.loc 1 71 0
 138 00f4 CC309FE5 		ldr	r3, .L5+12
 139              	.LVL5:
 140              		.loc 1 70 0
 141 00f8 B020D1E1 		ldrh	r2, [r1, #0]
 142              		.loc 1 71 0
 143 00fc 033002E0 		and	r3, r2, r3
 144              		.loc 1 72 0
 145 0100 B030C1E1 		strh	r3, [r1, #0]	@ movhi
 146              		.loc 1 75 0
 147 0104 021041E2 		sub	r1, r1, #2
 148 0108 B020D1E1 		ldrh	r2, [r1, #0]
 149              		.loc 1 76 0
 150 010c B8309FE5 		ldr	r3, .L5+16
 151              	.LVL6:
 152 0110 033002E0 		and	r3, r2, r3
 153              		.loc 1 77 0
 154 0114 023083E3 		orr	r3, r3, #2
 155              	.LVL7:
 156              	.LBE3:
 157              	.LBE2:
 100:board/se_j100/init.c **** 
 101:board/se_j100/init.c **** 	/* Initialize board-specific GPIO */
 102:board/se_j100/init.c **** 	board_io_init();
 103:board/se_j100/init.c **** 
 104:board/se_j100/init.c **** 	/* Enable bootrom mapping to route exception vectors to RAM */
 105:board/se_j100/init.c **** 	calypso_bootrom(with_irq);
 158              		.loc 1 105 0
 159 0118 0400A0E1 		mov	r0, r4
 160              	.LBB4:
 161              	.LBB5:
 162              		.loc 1 78 0
 163 011c B030C1E1 		strh	r3, [r1, #0]	@ movhi
 164              	.LBE5:
 165              	.LBE4:
 166              		.loc 1 105 0
 167 0120 FEFFFFEB 		bl	calypso_bootrom
 168              	.LVL8:
 106:board/se_j100/init.c **** 	calypso_exceptions_install();
 169              		.loc 1 106 0
 170 0124 FEFFFFEB 		bl	calypso_exceptions_install
 107:board/se_j100/init.c **** 
 108:board/se_j100/init.c **** 	/* Initialize interrupt controller */
 109:board/se_j100/init.c **** 	if (with_irq)
 171              		.loc 1 109 0
 172 0128 050054E1 		cmp	r4, r5
 110:board/se_j100/init.c **** 		irq_init();
 173              		.loc 1 110 0
 174 012c FEFFFF1B 		blne	irq_init
 175              	.L2:
 111:board/se_j100/init.c **** 
 112:board/se_j100/init.c **** 	sercomm_bind_uart(UART_MODEM);
 176              		.loc 1 112 0
 177 0130 0600A0E1 		mov	r0, r6
 178 0134 FEFFFFEB 		bl	sercomm_bind_uart
 113:board/se_j100/init.c **** 	cons_bind_uart(UART_IRDA);
 114:board/se_j100/init.c **** 
 115:board/se_j100/init.c **** 	/* initialize MODEM UART to be used for sercomm */
 116:board/se_j100/init.c **** 	uart_init(UART_MODEM, with_irq);
 179              		.loc 1 116 0
 180 0138 FF4004E2 		and	r4, r4, #255
 181              	.LVL9:
 182              		.loc 1 113 0
 183 013c 0500A0E1 		mov	r0, r5
 184 0140 FEFFFFEB 		bl	cons_bind_uart
 185              		.loc 1 116 0
 186 0144 0410A0E1 		mov	r1, r4
 187 0148 0600A0E1 		mov	r0, r6
 188 014c FEFFFFEB 		bl	uart_init
 117:board/se_j100/init.c **** 	uart_baudrate(UART_MODEM, UART_115200);
 189              		.loc 1 117 0
 190 0150 0600A0E1 		mov	r0, r6
 191 0154 0210A0E3 		mov	r1, #2
 192 0158 FEFFFFEB 		bl	uart_baudrate
 118:board/se_j100/init.c **** 
 119:board/se_j100/init.c **** 	/* initialize IRDA UART to be used for old-school console code.
 120:board/se_j100/init.c **** 	 * note: IRDA uart only accessible on C115 and C117 PCB */
 121:board/se_j100/init.c **** 	uart_init(UART_IRDA, with_irq);
 193              		.loc 1 121 0
 194 015c 0500A0E1 		mov	r0, r5
 195 0160 0410A0E1 		mov	r1, r4
 196 0164 FEFFFFEB 		bl	uart_init
 122:board/se_j100/init.c **** 	uart_baudrate(UART_IRDA, UART_115200);
 197              		.loc 1 122 0
 198 0168 0210A0E3 		mov	r1, #2
 199 016c 0500A0E1 		mov	r0, r5
 200 0170 FEFFFFEB 		bl	uart_baudrate
 123:board/se_j100/init.c **** 
 124:board/se_j100/init.c **** 	/* Initialize hardware timers */
 125:board/se_j100/init.c **** 	hwtimer_init();
 201              		.loc 1 125 0
 202 0174 FEFFFFEB 		bl	hwtimer_init
 126:board/se_j100/init.c **** 
 127:board/se_j100/init.c **** 	/* Initialize DMA controller */
 128:board/se_j100/init.c **** 	dma_init();
 203              		.loc 1 128 0
 204 0178 FEFFFFEB 		bl	dma_init
 129:board/se_j100/init.c **** 
 130:board/se_j100/init.c **** 	/* Initialize real time clock */
 131:board/se_j100/init.c **** 	rtc_init();
 205              		.loc 1 131 0
 206 017c FEFFFFEB 		bl	rtc_init
 132:board/se_j100/init.c **** 
 133:board/se_j100/init.c **** 	/* Initialize system timers (uses hwtimer 2) */
 134:board/se_j100/init.c **** 	timer_init();
 207              		.loc 1 134 0
 208 0180 FEFFFFEB 		bl	timer_init
 209              	.LBB6:
 210              	.LBB7:
 211              		.file 2 "include/fb/framebuffer.h"
   1:include/fb/framebuffer.h **** #ifndef _FB_FRAMEBUFFER_H
   2:include/fb/framebuffer.h **** #define _FB_FRAMEBUFFER_H
   3:include/fb/framebuffer.h **** 
   4:include/fb/framebuffer.h **** #include <fb/font.h>
   5:include/fb/framebuffer.h **** #include <stdint.h>
   6:include/fb/framebuffer.h **** 
   7:include/fb/framebuffer.h **** /* color is encoded as <special><red><green><blue> */
   8:include/fb/framebuffer.h **** /* if a color is "special", then the RGB components most likely
   9:include/fb/framebuffer.h ****    don't make sense. Use "special" colours when you have to
  10:include/fb/framebuffer.h ****    mask out bits with transparency or you have to encode
  11:include/fb/framebuffer.h ****    colours in a fixed color palette ... */
  12:include/fb/framebuffer.h **** 
  13:include/fb/framebuffer.h **** #define FB_COLOR_WHITE		0x00ffffffU
  14:include/fb/framebuffer.h **** #define FB_COLOR_BLACK		0x00000000U
  15:include/fb/framebuffer.h **** #define FB_COLOR_TRANSP		0x01ffffffU
  16:include/fb/framebuffer.h **** 
  17:include/fb/framebuffer.h **** #define FB_COLOR_RGB(r,g,b) ((((r) & 0xff)<<16)|(((g)&0xff)<<8)|((b)&0xff))
  18:include/fb/framebuffer.h **** #define FB_COLOR_RED		FB_COLOR_RGB(0xff,0x00,0x00)
  19:include/fb/framebuffer.h **** #define FB_COLOR_GREEN		FB_COLOR_RGB(0x00,0xff,0x00)
  20:include/fb/framebuffer.h **** #define FB_COLOR_BLUE		FB_COLOR_RGB(0x00,0x00,0xff)
  21:include/fb/framebuffer.h **** 
  22:include/fb/framebuffer.h **** /* encode */
  23:include/fb/framebuffer.h **** 
  24:include/fb/framebuffer.h **** /* decode */
  25:include/fb/framebuffer.h **** #define FB_COLOR_IS_SPECIAL(v)     (!!((v) & 0xff000000U))
  26:include/fb/framebuffer.h **** #define FB_COLOR_TO_R(v)		(((v)>>16) & 0xff)
  27:include/fb/framebuffer.h **** #define FB_COLOR_TO_G(v)		(((v)>> 8) & 0xff)
  28:include/fb/framebuffer.h **** #define FB_COLOR_TO_B(v)		( (v)      & 0xff)
  29:include/fb/framebuffer.h **** 
  30:include/fb/framebuffer.h **** struct framebuffer {
  31:include/fb/framebuffer.h **** 	char name[8];				// keep it short!
  32:include/fb/framebuffer.h **** 	void (*init)();				// (re)initialize
  33:include/fb/framebuffer.h **** 	void (*clear)();			// clear display
  34:include/fb/framebuffer.h **** 	void (*set_p)(uint16_t x,uint16_t y);	// set pixel to fg color
  35:include/fb/framebuffer.h **** 	void (*boxto)(uint16_t x,uint16_t y);	// draw box to xy
  36:include/fb/framebuffer.h **** 	void (*lineto)(uint16_t x,uint16_t y);	// draw line to xy
  37:include/fb/framebuffer.h **** 	int (*putstr)(char *c,int maxwidth);	// put text in current font to fb
  38:include/fb/framebuffer.h **** 	void (*flush)();			// flush changes
  39:include/fb/framebuffer.h **** 
  40:include/fb/framebuffer.h **** 	uint16_t width,height;			// width/height of fb
  41:include/fb/framebuffer.h **** 	uint16_t cursor_x,cursor_y;		// current cursor
  42:include/fb/framebuffer.h **** 	uint32_t fg_color,bg_color;		// current fg/bg color
  43:include/fb/framebuffer.h **** 	enum fb_font_id font;			// current font
  44:include/fb/framebuffer.h **** };
  45:include/fb/framebuffer.h **** 
  46:include/fb/framebuffer.h **** /* there is a single framebuffer, the specific driver defines
  47:include/fb/framebuffer.h ****    the "framebuffer" symbol */
  48:include/fb/framebuffer.h **** extern struct framebuffer *framebuffer;
  49:include/fb/framebuffer.h **** 
  50:include/fb/framebuffer.h **** static inline void
  51:include/fb/framebuffer.h **** fb_init(){
  52:include/fb/framebuffer.h **** 	framebuffer->init();
 212              		.loc 2 52 0
 213 0184 44309FE5 		ldr	r3, .L5+20
 214 0188 003093E5 		ldr	r3, [r3, #0]
 215 018c 0FE0A0E1 		mov	lr, pc
 216 0190 08F093E5 		ldr	pc, [r3, #8]
 217              	.LBE7:
 218              	.LBE6:
 135:board/se_j100/init.c **** 
 136:board/se_j100/init.c **** 	/* Initialize LCD driver (uses UWire) and backlight */
 137:board/se_j100/init.c **** 	fb_init();
 138:board/se_j100/init.c **** 	bl_mode_pwl(1);
 219              		.loc 1 138 0
 220 0194 0600A0E1 		mov	r0, r6
 221 0198 FEFFFFEB 		bl	bl_mode_pwl
 139:board/se_j100/init.c **** 	bl_level(50);
 222              		.loc 1 139 0
 223 019c 3200A0E3 		mov	r0, #50
 224 01a0 FEFFFFEB 		bl	bl_level
 140:board/se_j100/init.c **** 
 141:board/se_j100/init.c **** 	/* Initialize keypad driver */
 142:board/se_j100/init.c **** 	keypad_init(keymap, with_irq);
 225              		.loc 1 142 0
 226 01a4 0410A0E1 		mov	r1, r4
 227 01a8 24009FE5 		ldr	r0, .L5+24
 228 01ac FEFFFFEB 		bl	keypad_init
 143:board/se_j100/init.c **** 
 144:board/se_j100/init.c **** 	/* Initialize ABB driver (uses SPI) */
 145:board/se_j100/init.c **** 	twl3025_init();
 146:board/se_j100/init.c **** }
 229              		.loc 1 146 0
 230 01b0 0CD08DE2 		add	sp, sp, #12
 231 01b4 7040BDE8 		ldmfd	sp!, {r4, r5, r6, lr}
 232              		.loc 1 145 0
 233 01b8 FEFFFFEA 		b	twl3025_init
 234              	.L6:
 235              		.align	2
 236              	.L5:
 237 01bc 08F0FEFF 		.word	-69624
 238 01c0 7DEB0000 		.word	60285
 239 01c4 0448FEFF 		.word	-112636
 240 01c8 F5FF0000 		.word	65525
 241 01cc F7FF0000 		.word	65527
 242 01d0 00000000 		.word	framebuffer
 243 01d4 00000000 		.word	keymap
 244              	.LFE56:
 289              	.Letext0:
DEFINED SYMBOLS
                            *ABS*:0000000000000000 init.c
     /tmp/ccbSvkkP.s:13     .rodata:0000000000000000 keymap
     /tmp/ccbSvkkP.s:42     .text.board_init:0000000000000000 board_init
     /tmp/ccbSvkkP.s:49     .text.board_init:0000000000000000 $a
     /tmp/ccbSvkkP.s:237    .text.board_init:00000000000001bc $d

UNDEFINED SYMBOLS
wdog_enable
calypso_mem_cfg
calypso_clock_set
calypso_rhea_cfg
calypso_bootrom
calypso_exceptions_install
irq_init
sercomm_bind_uart
cons_bind_uart
uart_init
uart_baudrate
hwtimer_init
dma_init
rtc_init
timer_init
bl_mode_pwl
bl_level
keypad_init
twl3025_init
framebuffer
